target datalayout = "e-m:e-p270:32:32-p271:32:32-p272:64:64-i64:64-i128:128-f80:128-n8:16:32:64-S128"
target triple = "x86_64-pc-linux-gnu"

; Function Attrs: nounwind uwtable
define internal void @chrRangeToJpeg_c(ptr noundef %0, ptr noundef %1, i32 noundef %2, i32 noundef %3, i64 noundef %4) #0 {
  %6 = alloca ptr, align 8
  %7 = alloca ptr, align 8
  %8 = alloca i32, align 4
  %9 = alloca i32, align 4
  %10 = alloca i64, align 8
  %11 = alloca i16, align 2
  %12 = alloca i32, align 4
  %13 = alloca i32, align 4
  %14 = alloca i32, align 4
  %15 = alloca i32, align 4
  store ptr %0, ptr %6, align 8, !tbaa !104
  store ptr %1, ptr %7, align 8, !tbaa !104
  store i32 %2, ptr %8, align 4, !tbaa !14
  store i32 %3, ptr %9, align 4, !tbaa !14
  store i64 %4, ptr %10, align 8, !tbaa !105
  call void @llvm.lifetime.start.p0(i64 2, ptr %11) #11
  %16 = load i32, ptr %9, align 4, !tbaa !14
  %17 = trunc i32 %16 to i16
  store i16 %17, ptr %11, align 2, !tbaa !102
  call void @llvm.lifetime.start.p0(i64 4, ptr %12) #11
  %18 = load i64, ptr %10, align 8, !tbaa !105
  %19 = trunc i64 %18 to i32
  store i32 %19, ptr %12, align 4, !tbaa !14
  call void @llvm.lifetime.start.p0(i64 4, ptr %13) #11
  store i32 0, ptr %13, align 4, !tbaa !14
  br label %20

20:                                               ; preds = %73, %5
  %21 = load i32, ptr %13, align 4, !tbaa !14
  %22 = load i32, ptr %8, align 4, !tbaa !14
  %23 = icmp slt i32 %21, %22
  br i1 %23, label %24, label %76

24:                                               ; preds = %20
  call void @llvm.lifetime.start.p0(i64 4, ptr %14) #11
  %25 = load ptr, ptr %6, align 8, !tbaa !104
  %26 = load i32, ptr %13, align 4, !tbaa !14
  %27 = sext i32 %26 to i64
  %28 = getelementptr inbounds i16, ptr %25, i64 %27
  %29 = load i16, ptr %28, align 2, !tbaa !102
  %30 = sext i16 %29 to i32
  %31 = load i16, ptr %11, align 2, !tbaa !102
  %32 = zext i16 %31 to i32
  %33 = mul nsw i32 %30, %32
  %34 = load i32, ptr %12, align 4, !tbaa !14
  %35 = add nsw i32 %33, %34
  %36 = ashr i32 %35, 14
  store i32 %36, ptr %14, align 4, !tbaa !14
  call void @llvm.lifetime.start.p0(i64 4, ptr %15) #11
  %37 = load ptr, ptr %7, align 8, !tbaa !104
  %38 = load i32, ptr %13, align 4, !tbaa !14
  %39 = sext i32 %38 to i64
  %40 = getelementptr inbounds i16, ptr %37, i64 %39
  %41 = load i16, ptr %40, align 2, !tbaa !102
  %42 = sext i16 %41 to i32
  %43 = load i16, ptr %11, align 2, !tbaa !102
  %44 = zext i16 %43 to i32
  %45 = mul nsw i32 %42, %44
  %46 = load i32, ptr %12, align 4, !tbaa !14
  %47 = add nsw i32 %45, %46
  %48 = ashr i32 %47, 14
  store i32 %48, ptr %15, align 4, !tbaa !14
  %49 = load i32, ptr %14, align 4, !tbaa !14
  %50 = icmp sgt i32 %49, 32767
  br i1 %50, label %51, label %52

51:                                               ; preds = %24
  br label %54

52:                                               ; preds = %24
  %53 = load i32, ptr %14, align 4, !tbaa !14
  br label %54

54:                                               ; preds = %52, %51
  %55 = phi i32 [ 32767, %51 ], [ %53, %52 ]
  %56 = trunc i32 %55 to i16
  %57 = load ptr, ptr %6, align 8, !tbaa !104
  %58 = load i32, ptr %13, align 4, !tbaa !14
  %59 = sext i32 %58 to i64
  %60 = getelementptr inbounds i16, ptr %57, i64 %59
  store i16 %56, ptr %60, align 2, !tbaa !102
  %61 = load i32, ptr %15, align 4, !tbaa !14
  %62 = icmp sgt i32 %61, 32767
  br i1 %62, label %63, label %64

63:                                               ; preds = %54
  br label %66

64:                                               ; preds = %54
  %65 = load i32, ptr %15, align 4, !tbaa !14
  br label %66

66:                                               ; preds = %64, %63
  %67 = phi i32 [ 32767, %63 ], [ %65, %64 ]
  %68 = trunc i32 %67 to i16
  %69 = load ptr, ptr %7, align 8, !tbaa !104
  %70 = load i32, ptr %13, align 4, !tbaa !14
  %71 = sext i32 %70 to i64
  %72 = getelementptr inbounds i16, ptr %69, i64 %71
  store i16 %68, ptr %72, align 2, !tbaa !102
  call void @llvm.lifetime.end.p0(i64 4, ptr %15) #11
  call void @llvm.lifetime.end.p0(i64 4, ptr %14) #11
  br label %73

73:                                               ; preds = %66
  %74 = load i32, ptr %13, align 4, !tbaa !14
  %75 = add nsw i32 %74, 1
  store i32 %75, ptr %13, align 4, !tbaa !14
  br label %20, !llvm.loop !109

76:                                               ; preds = %20
  call void @llvm.lifetime.end.p0(i64 4, ptr %13) #11
  call void @llvm.lifetime.end.p0(i64 4, ptr %12) #11
  call void @llvm.lifetime.end.p0(i64 2, ptr %11) #11
  ret void
}