; Function Attrs: nofree norecurse nosync nounwind memory(argmem: readwrite) uwtable
define internal void @chrRangeToJpeg_c(ptr noundef captures(none) %0, ptr noundef captures(none) %1, i32 noundef %2, i32 noundef %3, i64 noundef %4) #6 {
  %6 = trunc i64 %4 to i32
  %7 = icmp sgt i32 %2, 0
  br i1 %7, label %.lr.ph, label %._crit_edge

.lr.ph:                                           ; preds = %5
  %8 = and i32 %3, 65535
  %wide.trip.count = zext nneg i32 %2 to i64
  br label %9

9:                                                ; preds = %.lr.ph, %9
  %indvars.iv = phi i64 [ 0, %.lr.ph ], [ %indvars.iv.next, %9 ]
  %10 = getelementptr inbounds nuw i16, ptr %0, i64 %indvars.iv
  %11 = load i16, ptr %10, align 2, !tbaa !94
  %12 = sext i16 %11 to i32
  %13 = mul nsw i32 %8, %12
  %14 = add nsw i32 %13, %6
  %15 = ashr i32 %14, 14
  %16 = getelementptr inbounds nuw i16, ptr %1, i64 %indvars.iv
  %17 = load i16, ptr %16, align 2, !tbaa !94
  %18 = sext i16 %17 to i32
  %19 = mul nsw i32 %8, %18
  %20 = add nsw i32 %19, %6
  %21 = ashr i32 %20, 14
  %22 = tail call i32 @llvm.smin.i32(i32 %15, i32 32767)
  %23 = trunc i32 %22 to i16
  store i16 %23, ptr %10, align 2, !tbaa !94
  %24 = tail call i32 @llvm.smin.i32(i32 %21, i32 32767)
  %25 = trunc i32 %24 to i16
  store i16 %25, ptr %16, align 2, !tbaa !94
  %indvars.iv.next = add nuw nsw i64 %indvars.iv, 1
  %exitcond.not = icmp eq i64 %indvars.iv.next, %wide.trip.count
  br i1 %exitcond.not, label %._crit_edge, label %9, !llvm.loop !99

._crit_edge:                                      ; preds = %9, %5
  ret void
}